; Function Attrs: mustprogress uwtable
define noundef i32 @_ZNK6icu_756number4impl22MutablePatternModifier5applyERNS_22FormattedStringBuilderEiiR10UErrorCode(ptr noundef nonnull align 8 dereferenceable(392) %this, ptr noundef nonnull align 8 dereferenceable(136) %output, i32 noundef %leftIndex, i32 noundef %rightIndex, ptr noundef nonnull align 4 dereferenceable(4) %status) unnamed_addr #1 align 2 personality ptr @__gxx_personality_v0 {
entry:
  %ref.tmp = alloca %"class.icu_75::UnicodeString", align 8
  %fPatternInfo.i.i = getelementptr inbounds i8, ptr %this, i64 32
  %0 = load ptr, ptr %fPatternInfo.i.i, align 8
  %fSignDisplay.i.i = getelementptr inbounds i8, ptr %this, i64 44
  %1 = load i32, ptr %fSignDisplay.i.i, align 4
  %fSignum.i.i = getelementptr inbounds i8, ptr %this, i64 312
  %2 = load i32, ptr %fSignum.i.i, align 8
  %call.i.i = tail call noundef i32 @_ZN6icu_756number4impl18PatternStringUtils18resolveSignDisplayE18UNumberSignDisplayNS1_6SignumE(i32 noundef %1, i32 noundef %2)
  %fApproximately.i.i = getelementptr inbounds i8, ptr %this, i64 49
  %fPlural.i.i = getelementptr inbounds i8, ptr %this, i64 316
  %3 = load i32, ptr %fPlural.i.i, align 4
  %fPerMilleReplacesPercent.i.i = getelementptr inbounds i8, ptr %this, i64 48
  %4 = load <2 x i8>, ptr %fPerMilleReplacesPercent.i.i, align 8
  %5 = trunc <2 x i8> %4 to <2 x i1>
  %currentAffix.i.i = getelementptr inbounds i8, ptr %this, i64 328
  %6 = extractelement <2 x i1> %5, i64 0
  %7 = extractelement <2 x i1> %5, i64 1
  tail call void @_ZN6icu_756number4impl18PatternStringUtils26patternInfoToStringBuilderERKNS1_20AffixPatternProviderEbNS1_15PatternSignTypeEbNS_14StandardPlural4FormEbbRNS_13UnicodeStringE(ptr noundef nonnull align 8 dereferenceable(8) %0, i1 noundef zeroext true, i32 noundef %call.i.i, i1 noundef zeroext %7, i32 noundef %3, i1 noundef zeroext %6, i1 noundef zeroext false, ptr noundef nonnull align 8 dereferenceable(64) %currentAffix.i.i)
  %add.ptr.i = getelementptr inbounds i8, ptr %this, i64 16
  %fField.i = getelementptr inbounds i8, ptr %this, i64 40
  %agg.tmp.sroa.0.0.copyload.i = load i8, ptr %fField.i, align 8
  %call.i = tail call noundef i32 @_ZN6icu_756number4impl10AffixUtils8unescapeERKNS_13UnicodeStringERNS_22FormattedStringBuilderEiRKNS1_14SymbolProviderENS6_5FieldER10UErrorCode(ptr noundef nonnull align 8 dereferenceable(64) %currentAffix.i.i, ptr noundef nonnull align 8 dereferenceable(136) %output, i32 noundef %leftIndex, ptr noundef nonnull align 8 dereferenceable(8) %add.ptr.i, i8 %agg.tmp.sroa.0.0.copyload.i, ptr noundef nonnull align 4 dereferenceable(4) %status)
  %add = add i32 %call.i, %rightIndex
  %8 = load ptr, ptr %fPatternInfo.i.i, align 8
  %9 = load i32, ptr %fSignDisplay.i.i, align 4
  %10 = load i32, ptr %fSignum.i.i, align 8
  %call.i.i22 = tail call noundef i32 @_ZN6icu_756number4impl18PatternStringUtils18resolveSignDisplayE18UNumberSignDisplayNS1_6SignumE(i32 noundef %9, i32 noundef %10)
  %11 = load i8, ptr %fApproximately.i.i, align 1
  %12 = and i8 %11, 1
  %tobool2.i.i24 = icmp ne i8 %12, 0
  %13 = load i32, ptr %fPlural.i.i, align 4
  %14 = load i8, ptr %fPerMilleReplacesPercent.i.i, align 8
  %15 = and i8 %14, 1
  %tobool3.i.i27 = icmp ne i8 %15, 0
  tail call void @_ZN6icu_756number4impl18PatternStringUtils26patternInfoToStringBuilderERKNS1_20AffixPatternProviderEbNS1_15PatternSignTypeEbNS_14StandardPlural4FormEbbRNS_13UnicodeStringE(ptr noundef nonnull align 8 dereferenceable(8) %8, i1 noundef zeroext false, i32 noundef %call.i.i22, i1 noundef zeroext %tobool2.i.i24, i32 noundef %13, i1 noundef zeroext %tobool3.i.i27, i1 noundef zeroext false, ptr noundef nonnull align 8 dereferenceable(64) %currentAffix.i.i)
  %agg.tmp.sroa.0.0.copyload.i31 = load i8, ptr %fField.i, align 8
  %call.i32 = tail call noundef i32 @_ZN6icu_756number4impl10AffixUtils8unescapeERKNS_13UnicodeStringERNS_22FormattedStringBuilderEiRKNS1_14SymbolProviderENS6_5FieldER10UErrorCode(ptr noundef nonnull align 8 dereferenceable(64) %currentAffix.i.i, ptr noundef nonnull align 8 dereferenceable(136) %output, i32 noundef %add, ptr noundef nonnull align 8 dereferenceable(8) %add.ptr.i, i8 %agg.tmp.sroa.0.0.copyload.i31, ptr noundef nonnull align 4 dereferenceable(4) %status)
  %16 = load ptr, ptr %fPatternInfo.i.i, align 8
  %vtable = load ptr, ptr %16, align 8
  %vfn = getelementptr inbounds i8, ptr %vtable, i64 80
  %17 = load ptr, ptr %vfn, align 8
  %call3 = tail call noundef zeroext i1 %17(ptr noundef nonnull align 8 dereferenceable(8) %16)
  br i1 %call3, label %if.end, label %if.then

if.then:                                          ; preds = %entry
  %add4 = add nsw i32 %call.i, %leftIndex
  store ptr getelementptr inbounds ({ [13 x ptr] }, ptr @_ZTVN6icu_7513UnicodeStringE, i64 0, i32 0, i64 2), ptr %ref.tmp, align 8
  %fUnion2.i = getelementptr inbounds i8, ptr %ref.tmp, i64 8
  store i16 2, ptr %fUnion2.i, align 8
  %call6 = invoke noundef i32 @_ZN6icu_7522FormattedStringBuilder6spliceEiiRKNS_13UnicodeStringEiiNS0_5FieldER10UErrorCode(ptr noundef nonnull align 8 dereferenceable(136) %output, i32 noundef %add4, i32 noundef %add, ptr noundef nonnull align 8 dereferenceable(64) %ref.tmp, i32 noundef 0, i32 noundef 0, i8 0, ptr noundef nonnull align 4 dereferenceable(4) %status)
          to label %invoke.cont unwind label %lpad

invoke.cont:                                      ; preds = %if.then
  call void @_ZN6icu_7513UnicodeStringD1Ev(ptr noundef nonnull align 8 dereferenceable(64) %ref.tmp) #21
  br label %if.end

lpad:                                             ; preds = %if.then
  %18 = landingpad { ptr, i32 }
          cleanup
  call void @_ZN6icu_7513UnicodeStringD1Ev(ptr noundef nonnull align 8 dereferenceable(64) %ref.tmp) #21
  resume { ptr, i32 } %18

if.end:                                           ; preds = %invoke.cont, %entry
  %overwriteLen.0 = phi i32 [ 0, %entry ], [ %call6, %invoke.cont ]
  %add8 = add i32 %add, %overwriteLen.0
  %fSymbols = getelementptr inbounds i8, ptr %this, i64 56
  %19 = load ptr, ptr %fSymbols, align 8
  %call9 = call noundef i32 @_ZN6icu_756number4impl30CurrencySpacingEnabledModifier20applyCurrencySpacingERNS_22FormattedStringBuilderEiiiiRKNS_20DecimalFormatSymbolsER10UErrorCode(ptr noundef nonnull align 8 dereferenceable(136) %output, i32 noundef %leftIndex, i32 noundef %call.i, i32 noundef %add8, i32 noundef %call.i32, ptr noundef nonnull align 8 dereferenceable(2883) %19, ptr noundef nonnull align 4 dereferenceable(4) %status)
  %add10 = add i32 %call.i32, %call.i
  %add11 = add i32 %add10, %overwriteLen.0
  ret i32 %add11
}